target datalayout = "e-m:e-p270:32:32-p271:32:32-p272:64:64-i64:64-i128:128-f80:128-n8:16:32:64-S128"
target triple = "x86_64-pc-linux-gnu"

%struct.cl_fmap = type { ptr, ptr, ptr, i64, i64, i64, i64, i8, i8, i8, i64, i64, i64, i64, ptr, ptr, ptr, ptr, ptr, ptr, ptr, i8, [16 x i8], i8, [20 x i8], i8, [32 x i8], ptr, ptr }

@.str.11 = private unnamed_addr constant [65 x i8] c"fmap_dump_to_file: Invalid offset arguments: start %zu, end %zu\0A\00", align 1
@.str.12 = private unnamed_addr constant [64 x i8] c"fmap_dump_to_file: Unable to determine basename from filepath.\0A\00", align 1
@.str.13 = private unnamed_addr constant [67 x i8] c"fmap_dump_to_file: Failed to allocate memory for tempfile prefix.\0A\00", align 1
@.str.14 = private unnamed_addr constant [11 x i8] c"%s.%zu-%zu\00", align 1
@.str.15 = private unnamed_addr constant [55 x i8] c"fmap_dump_to_file: dumping fmap not backed by file...\0A\00", align 1
@.str.16 = private unnamed_addr constant [55 x i8] c"fmap_dump_to_file: failed to generate temporary file.\0A\00", align 1
@.str.17 = private unnamed_addr constant [40 x i8] c"fmap_dump_to_file: write failed to %s!\0A\00", align 1
@.str.18 = private unnamed_addr constant [33 x i8] c"fmap_dump_to_file: lseek failed\0A\00", align 1

; Function Attrs: nounwind uwtable
define internal ptr @fmap_need_off_once(ptr noundef %0, i64 noundef %1, i64 noundef %2) #0 {
  %4 = alloca ptr, align 8
  %5 = alloca i64, align 8
  %6 = alloca i64, align 8
  store ptr %0, ptr %4, align 8
  store i64 %1, ptr %5, align 8
  store i64 %2, ptr %6, align 8
  %7 = load ptr, ptr %4, align 8
  %8 = getelementptr inbounds %struct.cl_fmap, ptr %7, i32 0, i32 15
  %9 = load ptr, ptr %8, align 8
  %10 = load ptr, ptr %4, align 8
  %11 = load i64, ptr %5, align 8
  %12 = load i64, ptr %6, align 8
  %13 = call ptr %9(ptr noundef %10, i64 noundef %11, i64 noundef %12, i32 noundef 0)
  ret ptr %13
}

; Function Attrs: nounwind uwtable
define internal ptr @fmap_need_off_once_len(ptr noundef %0, i64 noundef %1, i64 noundef %2, ptr noundef %3) #0 {
  %5 = alloca ptr, align 8
  %6 = alloca ptr, align 8
  %7 = alloca i64, align 8
  %8 = alloca i64, align 8
  %9 = alloca ptr, align 8
  %10 = alloca ptr, align 8
  store ptr %0, ptr %6, align 8
  store i64 %1, ptr %7, align 8
  store i64 %2, ptr %8, align 8
  store ptr %3, ptr %9, align 8
  %11 = load i64, ptr %7, align 8
  %12 = load ptr, ptr %6, align 8
  %13 = getelementptr inbounds %struct.cl_fmap, ptr %12, i32 0, i32 13
  %14 = load i64, ptr %13, align 8
  %15 = icmp uge i64 %11, %14
  br i1 %15, label %16, label %18

16:                                               ; preds = %4
  %17 = load ptr, ptr %9, align 8
  store i64 0, ptr %17, align 8
  store ptr null, ptr %5, align 8
  br label %46

18:                                               ; preds = %4
  %19 = load i64, ptr %8, align 8
  %20 = load ptr, ptr %6, align 8
  %21 = getelementptr inbounds %struct.cl_fmap, ptr %20, i32 0, i32 13
  %22 = load i64, ptr %21, align 8
  %23 = load i64, ptr %7, align 8
  %24 = sub i64 %22, %23
  %25 = icmp ugt i64 %19, %24
  br i1 %25, label %26, label %32

26:                                               ; preds = %18
  %27 = load ptr, ptr %6, align 8
  %28 = getelementptr inbounds %struct.cl_fmap, ptr %27, i32 0, i32 13
  %29 = load i64, ptr %28, align 8
  %30 = load i64, ptr %7, align 8
  %31 = sub i64 %29, %30
  store i64 %31, ptr %8, align 8
  br label %32

32:                                               ; preds = %26, %18
  %33 = load ptr, ptr %6, align 8
  %34 = load i64, ptr %7, align 8
  %35 = load i64, ptr %8, align 8
  %36 = call ptr @fmap_need_off_once(ptr noundef %33, i64 noundef %34, i64 noundef %35)
  store ptr %36, ptr %10, align 8
  %37 = load ptr, ptr %10, align 8
  %38 = icmp ne ptr %37, null
  br i1 %38, label %39, label %41

39:                                               ; preds = %32
  %40 = load i64, ptr %8, align 8
  br label %42

41:                                               ; preds = %32
  br label %42

42:                                               ; preds = %41, %39
  %43 = phi i64 [ %40, %39 ], [ 0, %41 ]
  %44 = load ptr, ptr %9, align 8
  store i64 %43, ptr %44, align 8
  %45 = load ptr, ptr %10, align 8
  store ptr %45, ptr %5, align 8
  br label %46

46:                                               ; preds = %42, %16
  %47 = load ptr, ptr %5, align 8
  ret ptr %47
}

; Function Attrs: nounwind uwtable
define i32 @fmap_dump_to_file(ptr noundef %0, ptr noundef %1, ptr noundef %2, ptr noundef %3, ptr noundef %4, i64 noundef %5, i64 noundef %6) #0 {
  %8 = alloca i32, align 4
  %9 = alloca ptr, align 8
  %10 = alloca ptr, align 8
  %11 = alloca ptr, align 8
  %12 = alloca ptr, align 8
  %13 = alloca ptr, align 8
  %14 = alloca i64, align 8
  %15 = alloca i64, align 8
  %16 = alloca i32, align 4
  %17 = alloca ptr, align 8
  %18 = alloca ptr, align 8
  %19 = alloca ptr, align 8
  %20 = alloca i32, align 4
  %21 = alloca i64, align 8
  %22 = alloca i64, align 8
  %23 = alloca i64, align 8
  %24 = alloca i64, align 8
  %25 = alloca i64, align 8
  %26 = alloca ptr, align 8
  store ptr %0, ptr %9, align 8
  store ptr %1, ptr %10, align 8
  store ptr %2, ptr %11, align 8
  store ptr %3, ptr %12, align 8
  store ptr %4, ptr %13, align 8
  store i64 %5, ptr %14, align 8
  store i64 %6, ptr %15, align 8
  store i32 3, ptr %16, align 4
  store ptr null, ptr %17, align 8
  store ptr null, ptr %18, align 8
  store ptr null, ptr %19, align 8
  store i32 -1, ptr %20, align 4
  store i64 0, ptr %21, align 8
  store i64 0, ptr %22, align 8
  store i64 0, ptr %23, align 8
  store i64 0, ptr %24, align 8
  %27 = load i64, ptr %14, align 8
  %28 = load ptr, ptr %9, align 8
  %29 = getelementptr inbounds %struct.cl_fmap, ptr %28, i32 0, i32 12
  %30 = load i64, ptr %29, align 8
  %31 = icmp ugt i64 %27, %30
  br i1 %31, label %36, label %32

32:                                               ; preds = %7
  %33 = load i64, ptr %15, align 8
  %34 = load i64, ptr %14, align 8
  %35 = icmp ult i64 %33, %34
  br i1 %35, label %36, label %40

36:                                               ; preds = %32, %7
  %37 = load i64, ptr %14, align 8
  %38 = load i64, ptr %15, align 8
  call void (ptr, ...) @cli_dbgmsg(ptr noundef @.str.11, i64 noundef %37, i64 noundef %38)
  %39 = load i32, ptr %16, align 4
  store i32 %39, ptr %8, align 4
  br label %184

40:                                               ; preds = %32
  %41 = load i64, ptr %14, align 8
  store i64 %41, ptr %21, align 8
  %42 = load i64, ptr %15, align 8
  %43 = load ptr, ptr %9, align 8
  %44 = getelementptr inbounds %struct.cl_fmap, ptr %43, i32 0, i32 12
  %45 = load i64, ptr %44, align 8
  %46 = icmp ult i64 %42, %45
  br i1 %46, label %47, label %49

47:                                               ; preds = %40
  %48 = load i64, ptr %15, align 8
  br label %53

49:                                               ; preds = %40
  %50 = load ptr, ptr %9, align 8
  %51 = getelementptr inbounds %struct.cl_fmap, ptr %50, i32 0, i32 12
  %52 = load i64, ptr %51, align 8
  br label %53

53:                                               ; preds = %49, %47
  %54 = phi i64 [ %48, %47 ], [ %52, %49 ]
  store i64 %54, ptr %15, align 8
  %55 = load i64, ptr %15, align 8
  %56 = load i64, ptr %14, align 8
  %57 = sub i64 %55, %56
  store i64 %57, ptr %23, align 8
  %58 = load ptr, ptr %10, align 8
  %59 = icmp ne ptr %58, null
  br i1 %59, label %60, label %102

60:                                               ; preds = %53
  %61 = load ptr, ptr %10, align 8
  %62 = load ptr, ptr %10, align 8
  %63 = call i64 @strlen(ptr noundef %62) #11
  %64 = call i32 @cli_basename(ptr noundef %61, i64 noundef %63, ptr noundef %17)
  %65 = icmp ne i32 0, %64
  br i1 %65, label %66, label %67

66:                                               ; preds = %60
  call void (ptr, ...) @cli_dbgmsg(ptr noundef @.str.12)
  br label %101

67:                                               ; preds = %60
  %68 = load i64, ptr %14, align 8
  %69 = icmp ne i64 %68, 0
  br i1 %69, label %70, label %98

70:                                               ; preds = %67
  %71 = load i64, ptr %15, align 8
  %72 = load ptr, ptr %9, align 8
  %73 = getelementptr inbounds %struct.cl_fmap, ptr %72, i32 0, i32 12
  %74 = load i64, ptr %73, align 8
  %75 = icmp ne i64 %71, %74
  br i1 %75, label %76, label %98

76:                                               ; preds = %70
  %77 = load ptr, ptr %17, align 8
  %78 = call i64 @strlen(ptr noundef %77) #11
  %79 = add i64 %78, 1
  %80 = add i64 %79, 23
  %81 = add i64 %80, 1
  %82 = add i64 %81, 23
  %83 = add i64 %82, 1
  store i64 %83, ptr %25, align 8
  %84 = load i64, ptr %25, align 8
  %85 = call noalias ptr @malloc(i64 noundef %84) #10
  store ptr %85, ptr %18, align 8
  %86 = load ptr, ptr %18, align 8
  %87 = icmp eq ptr null, %86
  br i1 %87, label %88, label %90

88:                                               ; preds = %76
  call void (ptr, ...) @cli_errmsg(ptr noundef @.str.13)
  %89 = load ptr, ptr %17, align 8
  call void @free(ptr noundef %89) #8
  store i32 20, ptr %8, align 4
  br label %184

90:                                               ; preds = %76
  %91 = load ptr, ptr %18, align 8
  %92 = load i64, ptr %25, align 8
  %93 = load ptr, ptr %17, align 8
  %94 = load i64, ptr %14, align 8
  %95 = load i64, ptr %15, align 8
  %96 = call i32 (ptr, i64, ptr, ...) @snprintf(ptr noundef %91, i64 noundef %92, ptr noundef @.str.14, ptr noundef %93, i64 noundef %94, i64 noundef %95) #8
  %97 = load ptr, ptr %17, align 8
  call void @free(ptr noundef %97) #8
  store ptr null, ptr %17, align 8
  br label %100

98:                                               ; preds = %70, %67
  %99 = load ptr, ptr %17, align 8
  store ptr %99, ptr %18, align 8
  store ptr null, ptr %17, align 8
  br label %100

100:                                              ; preds = %98, %90
  br label %101

101:                                              ; preds = %100, %66
  br label %102

102:                                              ; preds = %101, %53
  call void (ptr, ...) @cli_dbgmsg(ptr noundef @.str.15)
  %103 = load ptr, ptr %11, align 8
  %104 = load ptr, ptr %18, align 8
  %105 = call i32 @cli_gentempfd_with_prefix(ptr noundef %103, ptr noundef %104, ptr noundef %19, ptr noundef %20)
  store i32 %105, ptr %16, align 4
  %106 = load i32, ptr %16, align 4
  %107 = icmp ne i32 %106, 0
  br i1 %107, label %108, label %115

108:                                              ; preds = %102
  call void (ptr, ...) @cli_dbgmsg(ptr noundef @.str.16)
  %109 = load ptr, ptr %18, align 8
  %110 = icmp ne ptr null, %109
  br i1 %110, label %111, label %113

111:                                              ; preds = %108
  %112 = load ptr, ptr %18, align 8
  call void @free(ptr noundef %112) #8
  store ptr null, ptr %18, align 8
  br label %113

113:                                              ; preds = %111, %108
  %114 = load i32, ptr %16, align 4
  store i32 %114, ptr %8, align 4
  br label %184

115:                                              ; preds = %102
  %116 = load ptr, ptr %18, align 8
  %117 = icmp ne ptr null, %116
  br i1 %117, label %118, label %120

118:                                              ; preds = %115
  %119 = load ptr, ptr %18, align 8
  call void @free(ptr noundef %119) #8
  store ptr null, ptr %18, align 8
  br label %120

120:                                              ; preds = %118, %115
  br label %121

121:                                              ; preds = %172, %120
  store i64 0, ptr %22, align 8
  %122 = load i64, ptr %23, align 8
  %123 = icmp ult i64 8192, %122
  br i1 %123, label %124, label %125

124:                                              ; preds = %121
  br label %127

125:                                              ; preds = %121
  %126 = load i64, ptr %23, align 8
  br label %127

127:                                              ; preds = %125, %124
  %128 = phi i64 [ 8192, %124 ], [ %126, %125 ]
  store i64 %128, ptr %24, align 8
  %129 = load ptr, ptr %9, align 8
  %130 = load i64, ptr %21, align 8
  %131 = load i64, ptr %24, align 8
  %132 = call ptr @fmap_need_off_once_len(ptr noundef %129, i64 noundef %130, i64 noundef %131, ptr noundef %22)
  store ptr %132, ptr %26, align 8
  %133 = load i64, ptr %22, align 8
  %134 = load i64, ptr %21, align 8
  %135 = add i64 %134, %133
  store i64 %135, ptr %21, align 8
  %136 = load ptr, ptr %26, align 8
  %137 = icmp ne ptr %136, null
  br i1 %137, label %138, label %156

138:                                              ; preds = %127
  %139 = load i64, ptr %22, align 8
  %140 = icmp ugt i64 %139, 0
  br i1 %140, label %141, label %156

141:                                              ; preds = %138
  %142 = load i32, ptr %20, align 4
  %143 = load ptr, ptr %26, align 8
  %144 = load i64, ptr %22, align 8
  %145 = call i64 @cli_writen(i32 noundef %142, ptr noundef %143, i64 noundef %144)
  %146 = load i64, ptr %22, align 8
  %147 = icmp ne i64 %145, %146
  br i1 %147, label %148, label %155

148:                                              ; preds = %141
  %149 = load ptr, ptr %19, align 8
  call void (ptr, ...) @cli_warnmsg(ptr noundef @.str.17, ptr noundef %149)
  %150 = load i32, ptr %20, align 4
  %151 = call i32 @close(i32 noundef %150)
  %152 = load ptr, ptr %19, align 8
  %153 = call i32 @unlink(ptr noundef %152) #8
  %154 = load ptr, ptr %19, align 8
  call void @free(ptr noundef %154) #8
  store i32 14, ptr %8, align 4
  br label %184

155:                                              ; preds = %141
  br label %156

156:                                              ; preds = %155, %138, %127
  %157 = load i64, ptr %22, align 8
  %158 = load i64, ptr %23, align 8
  %159 = icmp ule i64 %157, %158
  br i1 %159, label %160, label %164

160:                                              ; preds = %156
  %161 = load i64, ptr %22, align 8
  %162 = load i64, ptr %23, align 8
  %163 = sub i64 %162, %161
  store i64 %163, ptr %23, align 8
  br label %165

164:                                              ; preds = %156
  store i64 0, ptr %23, align 8
  br label %165

165:                                              ; preds = %164, %160
  br label %166

166:                                              ; preds = %165
  %167 = load i64, ptr %22, align 8
  %168 = icmp ugt i64 %167, 0
  br i1 %168, label %169, label %172

169:                                              ; preds = %166
  %170 = load i64, ptr %23, align 8
  %171 = icmp ugt i64 %170, 0
  br label %172

172:                                              ; preds = %169, %166
  %173 = phi i1 [ false, %166 ], [ %171, %169 ]
  br i1 %173, label %121, label %174

174:                                              ; preds = %172
  %175 = load i32, ptr %20, align 4
  %176 = call i64 @lseek(i32 noundef %175, i64 noundef 0, i32 noundef 0) #8
  %177 = icmp eq i64 %176, -1
  br i1 %177, label %178, label %179

178:                                              ; preds = %174
  call void (ptr, ...) @cli_dbgmsg(ptr noundef @.str.18)
  br label %179

179:                                              ; preds = %178, %174
  %180 = load ptr, ptr %19, align 8
  %181 = load ptr, ptr %12, align 8
  store ptr %180, ptr %181, align 8
  %182 = load i32, ptr %20, align 4
  %183 = load ptr, ptr %13, align 8
  store i32 %182, ptr %183, align 4
  store i32 0, ptr %8, align 4
  br label %184

184:                                              ; preds = %179, %148, %113, %88, %36
  %185 = load i32, ptr %8, align 4
  ret i32 %185
}