; Function Attrs: nounwind uwtable
define i32 @fmap_dump_to_file(ptr noundef %0, ptr noundef %1, ptr noundef %2, ptr nocapture noundef writeonly %3, ptr nocapture noundef writeonly %4, i64 noundef %5, i64 noundef %6) local_unnamed_addr #0 {
  %8 = alloca ptr, align 8
  %9 = alloca ptr, align 8
  %10 = alloca i32, align 4
  store ptr null, ptr %8, align 8
  store ptr null, ptr %9, align 8
  store i32 -1, ptr %10, align 4
  %11 = getelementptr inbounds i8, ptr %0, i64 80
  %12 = load i64, ptr %11, align 8
  %13 = icmp ult i64 %12, %5
  %14 = icmp ult i64 %6, %5
  %or.cond69 = or i1 %14, %13
  br i1 %or.cond69, label %15, label %16

15:                                               ; preds = %7
  tail call void (ptr, ...) @cli_dbgmsg(ptr noundef nonnull @.str.11, i64 noundef %5, i64 noundef %6) #18
  br label %77

16:                                               ; preds = %7
  %. = tail call i64 @llvm.umin.i64(i64 %12, i64 %6)
  %17 = sub i64 %., %5
  %.not = icmp eq ptr %1, null
  br i1 %.not, label %38, label %18

18:                                               ; preds = %16
  %19 = tail call i64 @strlen(ptr noundef nonnull dereferenceable(1) %1) #21
  %20 = call i32 @cli_basename(ptr noundef nonnull %1, i64 noundef %19, ptr noundef nonnull %8) #18
  %.not61 = icmp eq i32 %20, 0
  br i1 %.not61, label %22, label %21

21:                                               ; preds = %18
  call void (ptr, ...) @cli_dbgmsg(ptr noundef nonnull @.str.12) #18
  br label %38

22:                                               ; preds = %18
  %.not62 = icmp eq i64 %5, 0
  br i1 %.not62, label %36, label %23

23:                                               ; preds = %22
  %24 = load i64, ptr %11, align 8
  %.not63 = icmp eq i64 %., %24
  br i1 %.not63, label %36, label %25

25:                                               ; preds = %23
  %26 = load ptr, ptr %8, align 8
  %27 = call i64 @strlen(ptr noundef nonnull dereferenceable(1) %26) #21
  %28 = add i64 %27, 49
  %29 = call noalias ptr @malloc(i64 noundef %28) #20
  %30 = icmp eq ptr %29, null
  br i1 %30, label %31, label %33

31:                                               ; preds = %25
  call void (ptr, ...) @cli_errmsg(ptr noundef nonnull @.str.13) #18
  %32 = load ptr, ptr %8, align 8
  call void @free(ptr noundef %32) #18
  br label %77

33:                                               ; preds = %25
  %34 = call i32 (ptr, i64, ptr, ...) @snprintf(ptr noundef nonnull %29, i64 noundef %28, ptr noundef nonnull @.str.14, ptr noundef %26, i64 noundef %5, i64 noundef %.) #18
  %35 = load ptr, ptr %8, align 8
  call void @free(ptr noundef %35) #18
  store ptr null, ptr %8, align 8
  br label %38

36:                                               ; preds = %23, %22
  %37 = load ptr, ptr %8, align 8
  store ptr null, ptr %8, align 8
  br label %38

38:                                               ; preds = %21, %36, %33, %16
  %.050 = phi ptr [ null, %21 ], [ %29, %33 ], [ %37, %36 ], [ null, %16 ]
  call void (ptr, ...) @cli_dbgmsg(ptr noundef nonnull @.str.15) #18
  %39 = call i32 @cli_gentempfd_with_prefix(ptr noundef %2, ptr noundef %.050, ptr noundef nonnull %9, ptr noundef nonnull %10) #18
  %.not64 = icmp eq i32 %39, 0
  br i1 %.not64, label %42, label %40

40:                                               ; preds = %38
  call void (ptr, ...) @cli_dbgmsg(ptr noundef nonnull @.str.16) #18
  %.not68 = icmp eq ptr %.050, null
  br i1 %.not68, label %77, label %41

41:                                               ; preds = %40
  call void @free(ptr noundef nonnull %.050) #18
  br label %77

42:                                               ; preds = %38
  %.not65 = icmp eq ptr %.050, null
  br i1 %.not65, label %44, label %43

43:                                               ; preds = %42
  call void @free(ptr noundef nonnull %.050) #18
  br label %44

44:                                               ; preds = %43, %42
  %45 = getelementptr inbounds i8, ptr %0, i64 88
  %46 = getelementptr inbounds i8, ptr %0, i64 104
  br label %47

47:                                               ; preds = %66, %44
  %.049 = phi i64 [ %5, %44 ], [ %54, %66 ]
  %.048 = phi i64 [ %17, %44 ], [ %67, %66 ]
  %48 = load i64, ptr %45, align 8
  %.not.i = icmp ugt i64 %48, %.049
  br i1 %.not.i, label %fmap_need_off_once_len.exit, label %.thread

fmap_need_off_once_len.exit:                      ; preds = %47
  %49 = sub i64 %48, %.049
  %50 = call i64 @llvm.umin.i64(i64 %.048, i64 %49)
  %spec.select.i = call i64 @llvm.umin.i64(i64 %50, i64 8192)
  %51 = load ptr, ptr %46, align 8
  %52 = call ptr %51(ptr noundef nonnull %0, i64 noundef %.049, i64 noundef %spec.select.i, i32 noundef 0) #18
  %.not20.i = icmp eq ptr %52, null
  %53 = select i1 %.not20.i, i64 0, i64 %spec.select.i
  %54 = add i64 %53, %.049
  %55 = icmp ne i64 %53, 0
  br i1 %55, label %56, label %.thread

56:                                               ; preds = %fmap_need_off_once_len.exit
  %57 = load i32, ptr %10, align 4
  %58 = call i64 @cli_writen(i32 noundef %57, ptr noundef nonnull %52, i64 noundef %spec.select.i) #18
  %.not66 = icmp eq i64 %58, %spec.select.i
  br i1 %.not66, label %66, label %59

59:                                               ; preds = %56
  %60 = load ptr, ptr %9, align 8
  call void (ptr, ...) @cli_warnmsg(ptr noundef nonnull @.str.17, ptr noundef %60) #18
  %61 = load i32, ptr %10, align 4
  %62 = call i32 @close(i32 noundef %61) #18
  %63 = load ptr, ptr %9, align 8
  %64 = call i32 @unlink(ptr noundef %63) #18
  %65 = load ptr, ptr %9, align 8
  call void @free(ptr noundef %65) #18
  br label %77

66:                                               ; preds = %56
  %67 = sub i64 %.048, %spec.select.i
  %68 = icmp ugt i64 %.048, %spec.select.i
  %69 = and i1 %55, %68
  br i1 %69, label %47, label %.thread

.thread:                                          ; preds = %fmap_need_off_once_len.exit, %47, %66
  %70 = load i32, ptr %10, align 4
  %71 = call i64 @lseek(i32 noundef %70, i64 noundef 0, i32 noundef 0) #18
  %72 = icmp eq i64 %71, -1
  br i1 %72, label %73, label %74

73:                                               ; preds = %.thread
  call void (ptr, ...) @cli_dbgmsg(ptr noundef nonnull @.str.18) #18
  br label %74

74:                                               ; preds = %73, %.thread
  %75 = load ptr, ptr %9, align 8
  store ptr %75, ptr %3, align 8
  %76 = load i32, ptr %10, align 4
  store i32 %76, ptr %4, align 4
  br label %77

77:                                               ; preds = %40, %41, %74, %59, %31, %15
  %.0 = phi i32 [ 3, %15 ], [ 14, %59 ], [ 0, %74 ], [ 20, %31 ], [ %39, %41 ], [ %39, %40 ]
  ret i32 %.0
}